; Function Attrs: mustprogress uwtable
define noundef i32 @_ZN6icu_7735SimpleFilteredSentenceBreakIterator4nextEv(ptr noundef nonnull align 8 captures(none) dereferenceable(56) %0) unnamed_addr #2 align 2 {
  %2 = getelementptr inbounds nuw i8, ptr %0, i64 40
  %3 = load ptr, ptr %2, align 8, !tbaa !23
  %4 = load ptr, ptr %3, align 8, !tbaa !3
  %5 = getelementptr inbounds nuw i8, ptr %4, i64 104
  %6 = load ptr, ptr %5, align 8
  %7 = tail call noundef i32 %6(ptr noundef nonnull align 8 dereferenceable(32) %3)
  %8 = tail call noundef i32 @_ZN6icu_7735SimpleFilteredSentenceBreakIterator12internalNextEi(ptr noundef nonnull align 8 dereferenceable(56) %0, i32 noundef %7)
  ret i32 %8
}